; Function Attrs: nounwind uwtable
define internal noundef zeroext i1 @php_auto_globals_create_files(ptr noundef %0) #0 {
  %2 = load i8, ptr getelementptr inbounds (%struct._php_core_globals, ptr @core_globals, i64 0, i32 39, i64 5, i32 1), align 8
  %3 = icmp eq i8 %2, 0
  br i1 %3, label %4, label %6

4:                                                ; preds = %1
  %5 = tail call ptr @_zend_new_array_0() #17
  store ptr %5, ptr getelementptr inbounds (%struct._php_core_globals, ptr @core_globals, i64 0, i32 39, i64 5), align 8
  store i32 775, ptr getelementptr inbounds (%struct._php_core_globals, ptr @core_globals, i64 0, i32 39, i64 5, i32 1), align 8
  br label %6

6:                                                ; preds = %4, %1
  %7 = tail call ptr @zend_hash_update(ptr noundef nonnull getelementptr inbounds (%struct._zend_executor_globals, ptr @executor_globals, i64 0, i32 5), ptr noundef %0, ptr noundef nonnull getelementptr inbounds (%struct._php_core_globals, ptr @core_globals, i64 0, i32 39, i64 5)) #17
  %8 = load i8, ptr getelementptr inbounds (%struct.anon.0, ptr getelementptr inbounds (%struct._php_core_globals, ptr @core_globals, i64 0, i32 39, i64 5, i32 1), i64 0, i32 1), align 1
  %9 = icmp ne i8 %8, 0
  tail call void @llvm.assume(i1 %9)
  %10 = load ptr, ptr getelementptr inbounds (%struct._php_core_globals, ptr @core_globals, i64 0, i32 39, i64 5), align 8
  %11 = load i32, ptr %10, align 4
  %12 = add i32 %11, 1
  store i32 %12, ptr %10, align 4
  ret i1 false
}